target datalayout = "e-m:e-p270:32:32-p271:32:32-p272:64:64-i64:64-i128:128-f80:128-n8:16:32:64-S128"
target triple = "x86_64-pc-linux-gnu"

%class.QTextCursor = type { %class.QSharedDataPointer }
%class.QSharedDataPointer = type { ptr }

; Function Attrs: mustprogress null_pointer_is_valid sspstrong uwtable
define void @_ZN23ShowPacketBytesTextEdit12showSelectedEv(ptr noundef align 8 dereferenceable_or_null(42) %0) #0 align 2 personality ptr @__gxx_personality_v0 {
  %2 = alloca ptr, align 8
  %3 = alloca %class.QTextCursor, align 8
  %4 = alloca i32, align 4
  %5 = alloca ptr, align 8
  %6 = alloca i32, align 4
  %7 = alloca i32, align 4
  store ptr %0, ptr %2, align 8
  %8 = load ptr, ptr %2, align 8
  call void @llvm.lifetime.start.p0(i64 8, ptr %3) #13
  call void @_ZNK9QTextEdit10textCursorEv(ptr dead_on_unwind writable sret(%class.QTextCursor) align 8 %3, ptr noundef align 8 dereferenceable_or_null(40) %8)
  call void @llvm.lifetime.start.p0(i64 4, ptr %4) #13
  %9 = invoke noundef i32 @_ZNK11QTextCursor14selectionStartEv(ptr noundef align 8 dereferenceable_or_null(8) %3)
          to label %10 unwind label %16

10:                                               ; preds = %1
  store i32 %9, ptr %4, align 4
  call void @llvm.lifetime.start.p0(i64 4, ptr %7) #13
  %11 = invoke noundef i32 @_ZNK11QTextCursor12selectionEndEv(ptr noundef align 8 dereferenceable_or_null(8) %3)
          to label %12 unwind label %20

12:                                               ; preds = %10
  store i32 %11, ptr %7, align 4
  %13 = load i32, ptr %4, align 4
  %14 = load i32, ptr %7, align 4
  invoke void @_ZN23ShowPacketBytesTextEdit12showSelectedEii(ptr noundef align 8 dereferenceable_or_null(42) %8, i32 noundef %13, i32 noundef %14)
          to label %15 unwind label %20

15:                                               ; preds = %12
  call void @llvm.lifetime.end.p0(i64 4, ptr %7) #13
  call void @llvm.lifetime.end.p0(i64 4, ptr %4) #13
  call void @_ZN11QTextCursorD1Ev(ptr noundef align 8 dereferenceable_or_null(8) %3) #13
  call void @llvm.lifetime.end.p0(i64 8, ptr %3) #13
  ret void

16:                                               ; preds = %1
  %17 = landingpad { ptr, i32 }
          cleanup
  %18 = extractvalue { ptr, i32 } %17, 0
  store ptr %18, ptr %5, align 8
  %19 = extractvalue { ptr, i32 } %17, 1
  store i32 %19, ptr %6, align 4
  br label %24

20:                                               ; preds = %12, %10
  %21 = landingpad { ptr, i32 }
          cleanup
  %22 = extractvalue { ptr, i32 } %21, 0
  store ptr %22, ptr %5, align 8
  %23 = extractvalue { ptr, i32 } %21, 1
  store i32 %23, ptr %6, align 4
  call void @llvm.lifetime.end.p0(i64 4, ptr %7) #13
  br label %24

24:                                               ; preds = %20, %16
  call void @llvm.lifetime.end.p0(i64 4, ptr %4) #13
  call void @_ZN11QTextCursorD1Ev(ptr noundef align 8 dereferenceable_or_null(8) %3) #13
  call void @llvm.lifetime.end.p0(i64 8, ptr %3) #13
  br label %25

25:                                               ; preds = %24
  %26 = load ptr, ptr %5, align 8
  %27 = load i32, ptr %6, align 4
  %28 = insertvalue { ptr, i32 } poison, ptr %26, 0
  %29 = insertvalue { ptr, i32 } %28, i32 %27, 1
  resume { ptr, i32 } %29
}