; Function Attrs: mustprogress null_pointer_is_valid sspstrong uwtable
define void @_ZN23ShowPacketBytesTextEdit12showSelectedEv(ptr noundef align 8 dereferenceable_or_null(42) %0) local_unnamed_addr #0 align 2 personality ptr @__gxx_personality_v0 {
  %2 = alloca %class.QTextCursor, align 8
  call void @llvm.lifetime.start.p0(i64 8, ptr nonnull %2) #28
  call void @_ZNK9QTextEdit10textCursorEv(ptr dead_on_unwind nonnull writable sret(%class.QTextCursor) align 8 %2, ptr noundef align 8 dereferenceable_or_null(40) %0)
  %3 = invoke noundef i32 @_ZNK11QTextCursor14selectionStartEv(ptr noundef nonnull align 8 dereferenceable_or_null(8) %2)
          to label %4 unwind label %8

4:                                                ; preds = %1
  %5 = invoke noundef i32 @_ZNK11QTextCursor12selectionEndEv(ptr noundef nonnull align 8 dereferenceable_or_null(8) %2)
          to label %6 unwind label %10

6:                                                ; preds = %4
  invoke void @_ZN23ShowPacketBytesTextEdit12showSelectedEii(ptr noundef align 8 dereferenceable_or_null(42) %0, i32 noundef %3, i32 noundef %5)
          to label %7 unwind label %10

7:                                                ; preds = %6
  call void @_ZN11QTextCursorD1Ev(ptr noundef nonnull align 8 dereferenceable_or_null(8) %2) #28
  call void @llvm.lifetime.end.p0(i64 8, ptr nonnull %2) #28
  ret void

8:                                                ; preds = %1
  %9 = landingpad { ptr, i32 }
          cleanup
  br label %12

10:                                               ; preds = %6, %4
  %11 = landingpad { ptr, i32 }
          cleanup
  br label %12

12:                                               ; preds = %10, %8
  %.pn = phi { ptr, i32 } [ %11, %10 ], [ %9, %8 ]
  call void @_ZN11QTextCursorD1Ev(ptr noundef nonnull align 8 dereferenceable_or_null(8) %2) #28
  call void @llvm.lifetime.end.p0(i64 8, ptr nonnull %2) #28
  resume { ptr, i32 } %.pn
}